; Function Attrs: nofree norecurse nosync nounwind memory(argmem: readwrite) uwtable
define internal void @blend_glow_8bit(ptr noundef readonly captures(none) %0, i64 noundef %1, ptr noundef readonly captures(none) %2, i64 noundef %3, ptr noundef writeonly captures(none) %4, i64 noundef %5, i64 noundef %6, i64 noundef %7, ptr noundef readonly captures(none) %8, ptr readnone captures(none) %9) #6 {
  %11 = getelementptr inbounds nuw i8, ptr %8, i64 8
  %12 = load double, ptr %11, align 8, !tbaa !70
  %13 = fptrunc nsz double %12 to float
  %14 = icmp sgt i64 %7, 0
  %15 = icmp sgt i64 %6, 0
  %or.cond = and i1 %14, %15
  br i1 %or.cond, label %.preheader.us, label %._crit_edge53

.preheader.us:                                    ; preds = %10, %._crit_edge.us
  %indvars.iv57 = phi i64 [ %indvars.iv.next58, %._crit_edge.us ], [ 0, %10 ]
  %.04251.us = phi ptr [ %37, %._crit_edge.us ], [ %4, %10 ]
  %.04350.us = phi ptr [ %39, %._crit_edge.us ], [ %2, %10 ]
  %.04449.us = phi ptr [ %38, %._crit_edge.us ], [ %0, %10 ]
  br label %16

16:                                               ; preds = %.preheader.us, %29
  %indvars.iv = phi i64 [ 0, %.preheader.us ], [ %indvars.iv.next, %29 ]
  %17 = getelementptr inbounds nuw i8, ptr %.04449.us, i64 %indvars.iv
  %18 = load i8, ptr %17, align 1, !tbaa !89
  %19 = uitofp i8 %18 to float
  %20 = icmp eq i8 %18, -1
  br i1 %20, label %29, label %21

21:                                               ; preds = %16
  %22 = getelementptr inbounds nuw i8, ptr %.04350.us, i64 %indvars.iv
  %23 = load i8, ptr %22, align 1, !tbaa !89
  %24 = zext i8 %23 to i16
  %25 = mul nuw i16 %24, %24
  %26 = xor i8 %18, -1
  %.rhs.trunc.us = zext i8 %26 to i16
  %27 = udiv i16 %25, %.rhs.trunc.us
  %28 = tail call i16 @llvm.umin.i16(i16 %27, i16 255)
  %spec.select.us = zext nneg i16 %28 to i32
  br label %29

29:                                               ; preds = %21, %16
  %30 = phi i32 [ 255, %16 ], [ %spec.select.us, %21 ]
  %31 = zext i8 %18 to i32
  %32 = sub nsw i32 %30, %31
  %33 = sitofp i32 %32 to float
  %34 = tail call nsz float @llvm.fmuladd.f32(float %33, float %13, float %19)
  %35 = fptoui float %34 to i8
  %36 = getelementptr inbounds nuw i8, ptr %.04251.us, i64 %indvars.iv
  store i8 %35, ptr %36, align 1, !tbaa !89
  %indvars.iv.next = add nuw nsw i64 %indvars.iv, 1
  %exitcond.not = icmp eq i64 %indvars.iv.next, %6
  br i1 %exitcond.not, label %._crit_edge.us, label %16, !llvm.loop !118

._crit_edge.us:                                   ; preds = %29
  %37 = getelementptr inbounds i8, ptr %.04251.us, i64 %5
  %38 = getelementptr inbounds i8, ptr %.04449.us, i64 %1
  %39 = getelementptr inbounds i8, ptr %.04350.us, i64 %3
  %indvars.iv.next58 = add nuw nsw i64 %indvars.iv57, 1
  %exitcond60.not = icmp eq i64 %indvars.iv.next58, %7
  br i1 %exitcond60.not, label %._crit_edge53, label %.preheader.us, !llvm.loop !119

._crit_edge53:                                    ; preds = %._crit_edge.us, %10
  ret void
}